target datalayout = "e-m:e-p270:32:32-p271:32:32-p272:64:64-i64:64-i128:128-f80:128-n8:16:32:64-S128"
target triple = "x86_64-pc-linux-gnu"

%struct.PutBitContext = type { i32, i32, ptr, ptr, ptr }

@ff_zigzag_direct = external constant [64 x i8], align 16
@.str.139 = private unnamed_addr constant [43 x i8] c"Internal error, put_bits buffer too small\0A\00", align 1

; Function Attrs: alwaysinline nounwind willreturn memory(none) uwtable
define internal i32 @av_bswap32(i32 noundef %0) #5 {
  %2 = alloca i32, align 4
  store i32 %0, ptr %2, align 4, !tbaa !13
  %3 = load i32, ptr %2, align 4, !tbaa !13
  %4 = shl i32 %3, 8
  %5 = and i32 %4, 65280
  %6 = load i32, ptr %2, align 4, !tbaa !13
  %7 = lshr i32 %6, 8
  %8 = and i32 %7, 255
  %9 = or i32 %5, %8
  %10 = shl i32 %9, 16
  %11 = load i32, ptr %2, align 4, !tbaa !13
  %12 = lshr i32 %11, 16
  %13 = shl i32 %12, 8
  %14 = and i32 %13, 65280
  %15 = load i32, ptr %2, align 4, !tbaa !13
  %16 = lshr i32 %15, 16
  %17 = lshr i32 %16, 8
  %18 = and i32 %17, 255
  %19 = or i32 %14, %18
  %20 = or i32 %10, %19
  ret i32 %20
}

; Function Attrs: inlinehint nounwind uwtable
define internal void @put_bits_no_assert(ptr noundef %0, i32 noundef %1, i32 noundef %2) #3 {
  %4 = alloca ptr, align 8
  %5 = alloca i32, align 4
  %6 = alloca i32, align 4
  %7 = alloca i32, align 4
  %8 = alloca i32, align 4
  store ptr %0, ptr %4, align 8, !tbaa !64
  store i32 %1, ptr %5, align 4, !tbaa !13
  store i32 %2, ptr %6, align 4, !tbaa !13
  call void @llvm.lifetime.start.p0(i64 4, ptr %7) #14
  call void @llvm.lifetime.start.p0(i64 4, ptr %8) #14
  %9 = load ptr, ptr %4, align 8, !tbaa !64
  %10 = getelementptr inbounds nuw %struct.PutBitContext, ptr %9, i32 0, i32 0
  %11 = load i32, ptr %10, align 8, !tbaa !416
  store i32 %11, ptr %7, align 4, !tbaa !13
  %12 = load ptr, ptr %4, align 8, !tbaa !64
  %13 = getelementptr inbounds nuw %struct.PutBitContext, ptr %12, i32 0, i32 1
  %14 = load i32, ptr %13, align 4, !tbaa !415
  store i32 %14, ptr %8, align 4, !tbaa !13
  %15 = load i32, ptr %5, align 4, !tbaa !13
  %16 = load i32, ptr %8, align 4, !tbaa !13
  %17 = icmp slt i32 %15, %16
  br i1 %17, label %18, label %27

18:                                               ; preds = %3
  %19 = load i32, ptr %7, align 4, !tbaa !13
  %20 = load i32, ptr %5, align 4, !tbaa !13
  %21 = shl i32 %19, %20
  %22 = load i32, ptr %6, align 4, !tbaa !13
  %23 = or i32 %21, %22
  store i32 %23, ptr %7, align 4, !tbaa !13
  %24 = load i32, ptr %5, align 4, !tbaa !13
  %25 = load i32, ptr %8, align 4, !tbaa !13
  %26 = sub nsw i32 %25, %24
  store i32 %26, ptr %8, align 4, !tbaa !13
  br label %65

27:                                               ; preds = %3
  %28 = load i32, ptr %8, align 4, !tbaa !13
  %29 = load i32, ptr %7, align 4, !tbaa !13
  %30 = shl i32 %29, %28
  store i32 %30, ptr %7, align 4, !tbaa !13
  %31 = load i32, ptr %6, align 4, !tbaa !13
  %32 = load i32, ptr %5, align 4, !tbaa !13
  %33 = load i32, ptr %8, align 4, !tbaa !13
  %34 = sub nsw i32 %32, %33
  %35 = lshr i32 %31, %34
  %36 = load i32, ptr %7, align 4, !tbaa !13
  %37 = or i32 %36, %35
  store i32 %37, ptr %7, align 4, !tbaa !13
  %38 = load ptr, ptr %4, align 8, !tbaa !64
  %39 = getelementptr inbounds nuw %struct.PutBitContext, ptr %38, i32 0, i32 4
  %40 = load ptr, ptr %39, align 8, !tbaa !417
  %41 = load ptr, ptr %4, align 8, !tbaa !64
  %42 = getelementptr inbounds nuw %struct.PutBitContext, ptr %41, i32 0, i32 3
  %43 = load ptr, ptr %42, align 8, !tbaa !413
  %44 = ptrtoint ptr %40 to i64
  %45 = ptrtoint ptr %43 to i64
  %46 = sub i64 %44, %45
  %47 = icmp uge i64 %46, 4
  br i1 %47, label %48, label %58

48:                                               ; preds = %27
  %49 = load i32, ptr %7, align 4, !tbaa !13
  %50 = call i32 @av_bswap32(i32 noundef %49) #16
  %51 = load ptr, ptr %4, align 8, !tbaa !64
  %52 = getelementptr inbounds nuw %struct.PutBitContext, ptr %51, i32 0, i32 3
  %53 = load ptr, ptr %52, align 8, !tbaa !413
  store i32 %50, ptr %53, align 1, !tbaa !52
  %54 = load ptr, ptr %4, align 8, !tbaa !64
  %55 = getelementptr inbounds nuw %struct.PutBitContext, ptr %54, i32 0, i32 3
  %56 = load ptr, ptr %55, align 8, !tbaa !413
  %57 = getelementptr inbounds nuw i8, ptr %56, i64 4
  store ptr %57, ptr %55, align 8, !tbaa !413
  br label %59

58:                                               ; preds = %27
  call void (ptr, i32, ptr, ...) @av_log(ptr noundef null, i32 noundef 16, ptr noundef @.str.139)
  br label %59

59:                                               ; preds = %58, %48
  %60 = load i32, ptr %5, align 4, !tbaa !13
  %61 = sub nsw i32 32, %60
  %62 = load i32, ptr %8, align 4, !tbaa !13
  %63 = add nsw i32 %62, %61
  store i32 %63, ptr %8, align 4, !tbaa !13
  %64 = load i32, ptr %6, align 4, !tbaa !13
  store i32 %64, ptr %7, align 4, !tbaa !13
  br label %65

65:                                               ; preds = %59, %18
  %66 = load i32, ptr %7, align 4, !tbaa !13
  %67 = load ptr, ptr %4, align 8, !tbaa !64
  %68 = getelementptr inbounds nuw %struct.PutBitContext, ptr %67, i32 0, i32 0
  store i32 %66, ptr %68, align 8, !tbaa !416
  %69 = load i32, ptr %8, align 4, !tbaa !13
  %70 = load ptr, ptr %4, align 8, !tbaa !64
  %71 = getelementptr inbounds nuw %struct.PutBitContext, ptr %70, i32 0, i32 1
  store i32 %69, ptr %71, align 4, !tbaa !415
  call void @llvm.lifetime.end.p0(i64 4, ptr %8) #14
  call void @llvm.lifetime.end.p0(i64 4, ptr %7) #14
  ret void
}

; Function Attrs: inlinehint nounwind uwtable
define internal void @put_bits(ptr noundef %0, i32 noundef %1, i32 noundef %2) #3 {
  %4 = alloca ptr, align 8
  %5 = alloca i32, align 4
  %6 = alloca i32, align 4
  store ptr %0, ptr %4, align 8, !tbaa !64
  store i32 %1, ptr %5, align 4, !tbaa !13
  store i32 %2, ptr %6, align 4, !tbaa !13
  %7 = load ptr, ptr %4, align 8, !tbaa !64
  %8 = load i32, ptr %5, align 4, !tbaa !13
  %9 = load i32, ptr %6, align 4, !tbaa !13
  call void @put_bits_no_assert(ptr noundef %7, i32 noundef %8, i32 noundef %9)
  ret void
}

; Function Attrs: nounwind uwtable
define void @ff_write_quant_matrix(ptr noundef %0, ptr noundef %1) #1 {
  %3 = alloca ptr, align 8
  %4 = alloca ptr, align 8
  %5 = alloca i32, align 4
  store ptr %0, ptr %3, align 8, !tbaa !64
  store ptr %1, ptr %4, align 8, !tbaa !11
  call void @llvm.lifetime.start.p0(i64 4, ptr %5) #14
  %6 = load ptr, ptr %4, align 8, !tbaa !11
  %7 = icmp ne ptr %6, null
  br i1 %7, label %8, label %28

8:                                                ; preds = %2
  %9 = load ptr, ptr %3, align 8, !tbaa !64
  call void @put_bits(ptr noundef %9, i32 noundef 1, i32 noundef 1)
  store i32 0, ptr %5, align 4, !tbaa !13
  br label %10

10:                                               ; preds = %24, %8
  %11 = load i32, ptr %5, align 4, !tbaa !13
  %12 = icmp slt i32 %11, 64
  br i1 %12, label %13, label %27

13:                                               ; preds = %10
  %14 = load ptr, ptr %3, align 8, !tbaa !64
  %15 = load ptr, ptr %4, align 8, !tbaa !11
  %16 = load i32, ptr %5, align 4, !tbaa !13
  %17 = sext i32 %16 to i64
  %18 = getelementptr inbounds [64 x i8], ptr @ff_zigzag_direct, i64 0, i64 %17
  %19 = load i8, ptr %18, align 1, !tbaa !52
  %20 = zext i8 %19 to i64
  %21 = getelementptr inbounds nuw i16, ptr %15, i64 %20
  %22 = load i16, ptr %21, align 2, !tbaa !54
  %23 = zext i16 %22 to i32
  call void @put_bits(ptr noundef %14, i32 noundef 8, i32 noundef %23)
  br label %24

24:                                               ; preds = %13
  %25 = load i32, ptr %5, align 4, !tbaa !13
  %26 = add nsw i32 %25, 1
  store i32 %26, ptr %5, align 4, !tbaa !13
  br label %10, !llvm.loop !66

27:                                               ; preds = %10
  br label %30

28:                                               ; preds = %2
  %29 = load ptr, ptr %3, align 8, !tbaa !64
  call void @put_bits(ptr noundef %29, i32 noundef 1, i32 noundef 0)
  br label %30

30:                                               ; preds = %28, %27
  call void @llvm.lifetime.end.p0(i64 4, ptr %5) #14
  ret void
}