; Function Attrs: nounwind uwtable
define void @ff_write_quant_matrix(ptr noundef captures(none) %0, ptr noundef readonly captures(address_is_null) %1) local_unnamed_addr #1 {
  %.not = icmp eq ptr %1, null
  %3 = load i32, ptr %0, align 8, !tbaa !57
  %4 = getelementptr inbounds nuw i8, ptr %0, i64 4
  %5 = load i32, ptr %4, align 4, !tbaa !58
  %6 = icmp sgt i32 %5, 1
  br i1 %.not, label %62, label %7

7:                                                ; preds = %2
  br i1 %6, label %8, label %11

8:                                                ; preds = %7
  %9 = shl i32 %3, 1
  %10 = or disjoint i32 %9, 1
  br label %put_bits.exit

11:                                               ; preds = %7
  %12 = getelementptr inbounds nuw i8, ptr %0, i64 24
  %13 = load ptr, ptr %12, align 8, !tbaa !59
  %14 = getelementptr inbounds nuw i8, ptr %0, i64 16
  %15 = load ptr, ptr %14, align 8, !tbaa !60
  %16 = ptrtoint ptr %13 to i64
  %17 = ptrtoint ptr %15 to i64
  %18 = sub i64 %16, %17
  %19 = icmp ugt i64 %18, 3
  br i1 %19, label %20, label %28

20:                                               ; preds = %11
  %21 = shl i32 %3, %5
  %22 = sub nsw i32 1, %5
  %23 = lshr i32 1, %22
  %24 = or i32 %23, %21
  %25 = tail call i32 @llvm.bswap.i32(i32 %24)
  store i32 %25, ptr %15, align 1, !tbaa !46
  %26 = load ptr, ptr %14, align 8, !tbaa !60
  %27 = getelementptr inbounds nuw i8, ptr %26, i64 4
  store ptr %27, ptr %14, align 8, !tbaa !60
  br label %put_bits.exit

28:                                               ; preds = %11
  tail call void (ptr, i32, ptr, ...) @av_log(ptr noundef null, i32 noundef 16, ptr noundef nonnull @.str.139) #16
  br label %put_bits.exit

put_bits.exit:                                    ; preds = %20, %28, %8
  %.sink = phi i32 [ -1, %8 ], [ 31, %28 ], [ 31, %20 ]
  %.026.i.i = phi i32 [ %10, %8 ], [ 1, %28 ], [ 1, %20 ]
  %29 = add nsw i32 %5, %.sink
  store i32 %.026.i.i, ptr %0, align 8, !tbaa !57
  store i32 %29, ptr %4, align 4, !tbaa !58
  %30 = getelementptr inbounds nuw i8, ptr %0, i64 24
  %31 = getelementptr inbounds nuw i8, ptr %0, i64 16
  br label %32

32:                                               ; preds = %put_bits.exit, %put_bits.exit11
  %33 = phi i32 [ %29, %put_bits.exit ], [ %61, %put_bits.exit11 ]
  %34 = phi i32 [ %.026.i.i, %put_bits.exit ], [ %.026.i.i9, %put_bits.exit11 ]
  %indvars.iv = phi i64 [ 0, %put_bits.exit ], [ %indvars.iv.next, %put_bits.exit11 ]
  %35 = getelementptr inbounds nuw [64 x i8], ptr @ff_zigzag_direct, i64 0, i64 %indvars.iv
  %36 = load i8, ptr %35, align 1, !tbaa !46
  %37 = zext i8 %36 to i64
  %38 = getelementptr inbounds nuw i16, ptr %1, i64 %37
  %39 = load i16, ptr %38, align 2, !tbaa !52
  %40 = zext i16 %39 to i32
  %41 = icmp sgt i32 %33, 8
  br i1 %41, label %42, label %45

42:                                               ; preds = %32
  %43 = shl i32 %34, 8
  %44 = or i32 %43, %40
  br label %put_bits.exit11

45:                                               ; preds = %32
  %46 = load ptr, ptr %30, align 8, !tbaa !59
  %47 = load ptr, ptr %31, align 8, !tbaa !60
  %48 = ptrtoint ptr %46 to i64
  %49 = ptrtoint ptr %47 to i64
  %50 = sub i64 %48, %49
  %51 = icmp ugt i64 %50, 3
  br i1 %51, label %52, label %60

52:                                               ; preds = %45
  %53 = shl i32 %34, %33
  %54 = sub nsw i32 8, %33
  %55 = lshr i32 %40, %54
  %56 = or i32 %55, %53
  %57 = tail call i32 @llvm.bswap.i32(i32 %56)
  store i32 %57, ptr %47, align 1, !tbaa !46
  %58 = load ptr, ptr %31, align 8, !tbaa !60
  %59 = getelementptr inbounds nuw i8, ptr %58, i64 4
  store ptr %59, ptr %31, align 8, !tbaa !60
  br label %put_bits.exit11

60:                                               ; preds = %45
  tail call void (ptr, i32, ptr, ...) @av_log(ptr noundef null, i32 noundef 16, ptr noundef nonnull @.str.139) #16
  br label %put_bits.exit11

put_bits.exit11:                                  ; preds = %52, %60, %42
  %.sink18 = phi i32 [ -8, %42 ], [ 24, %60 ], [ 24, %52 ]
  %.026.i.i9 = phi i32 [ %44, %42 ], [ %40, %60 ], [ %40, %52 ]
  %61 = add nsw i32 %33, %.sink18
  store i32 %.026.i.i9, ptr %0, align 8, !tbaa !57
  store i32 %61, ptr %4, align 4, !tbaa !58
  %indvars.iv.next = add nuw nsw i64 %indvars.iv, 1
  %exitcond.not = icmp eq i64 %indvars.iv.next, 64
  br i1 %exitcond.not, label %.loopexit, label %32, !llvm.loop !61

62:                                               ; preds = %2
  br i1 %6, label %63, label %65

63:                                               ; preds = %62
  %64 = shl i32 %3, 1
  br label %put_bits.exit15

65:                                               ; preds = %62
  %66 = getelementptr inbounds nuw i8, ptr %0, i64 24
  %67 = load ptr, ptr %66, align 8, !tbaa !59
  %68 = getelementptr inbounds nuw i8, ptr %0, i64 16
  %69 = load ptr, ptr %68, align 8, !tbaa !60
  %70 = ptrtoint ptr %67 to i64
  %71 = ptrtoint ptr %69 to i64
  %72 = sub i64 %70, %71
  %73 = icmp ugt i64 %72, 3
  br i1 %73, label %74, label %79

74:                                               ; preds = %65
  %75 = shl i32 %3, %5
  %76 = tail call i32 @llvm.bswap.i32(i32 %75)
  store i32 %76, ptr %69, align 1, !tbaa !46
  %77 = load ptr, ptr %68, align 8, !tbaa !60
  %78 = getelementptr inbounds nuw i8, ptr %77, i64 4
  store ptr %78, ptr %68, align 8, !tbaa !60
  br label %put_bits.exit15

79:                                               ; preds = %65
  tail call void (ptr, i32, ptr, ...) @av_log(ptr noundef null, i32 noundef 16, ptr noundef nonnull @.str.139) #16
  br label %put_bits.exit15

put_bits.exit15:                                  ; preds = %74, %79, %63
  %.sink19 = phi i32 [ -1, %63 ], [ 31, %79 ], [ 31, %74 ]
  %.026.i.i13 = phi i32 [ %64, %63 ], [ 0, %79 ], [ 0, %74 ]
  %80 = add nsw i32 %5, %.sink19
  store i32 %.026.i.i13, ptr %0, align 8, !tbaa !57
  store i32 %80, ptr %4, align 4, !tbaa !58
  br label %.loopexit

.loopexit:                                        ; preds = %put_bits.exit11, %put_bits.exit15
  ret void
}